; Function Attrs: mustprogress uwtable
define void @_ZN6google8protobuf17GeneratedCodeInfo12InternalSwapEPS1_(ptr noundef nonnull align 8 dereferenceable(48) %this, ptr noalias noundef %other) local_unnamed_addr #3 align 2 {
entry:
  %_internal_metadata_ = getelementptr inbounds i8, ptr %this, i64 8
  %_internal_metadata_2 = getelementptr inbounds i8, ptr %other, i64 8
  %0 = load i64, ptr %_internal_metadata_, align 8
  %1 = load i64, ptr %_internal_metadata_2, align 8
  store i64 %1, ptr %_internal_metadata_, align 8
  store i64 %0, ptr %_internal_metadata_2, align 8
  %2 = getelementptr inbounds i8, ptr %this, i64 16
  %3 = getelementptr inbounds i8, ptr %other, i64 16
  tail call void @_ZN6google8protobuf8internal7memswapILm16EEEvPcS3_(ptr noundef nonnull %2, ptr noundef nonnull %3)
  ret void
}